target datalayout = "e-m:e-p270:32:32-p271:32:32-p272:64:64-i64:64-i128:128-f80:128-n8:16:32:64-S128"
target triple = "x86_64-pc-linux-gnu"

; Function Attrs: nounwind uwtable
define internal i32 @parsedigit(i8 noundef signext %0) #0 {
  %2 = alloca i32, align 4
  %3 = alloca i8, align 1
  store i8 %0, ptr %3, align 1
  %4 = load i8, ptr %3, align 1
  %5 = sext i8 %4 to i32
  %6 = icmp sge i32 %5, 48
  br i1 %6, label %7, label %15

7:                                                ; preds = %1
  %8 = load i8, ptr %3, align 1
  %9 = sext i8 %8 to i32
  %10 = icmp sle i32 %9, 57
  br i1 %10, label %11, label %15

11:                                               ; preds = %7
  %12 = load i8, ptr %3, align 1
  %13 = sext i8 %12 to i32
  %14 = sub nsw i32 %13, 48
  store i32 %14, ptr %2, align 4
  br label %40

15:                                               ; preds = %7, %1
  %16 = load i8, ptr %3, align 1
  %17 = sext i8 %16 to i32
  %18 = icmp sge i32 %17, 97
  br i1 %18, label %19, label %27

19:                                               ; preds = %15
  %20 = load i8, ptr %3, align 1
  %21 = sext i8 %20 to i32
  %22 = icmp sle i32 %21, 102
  br i1 %22, label %23, label %27

23:                                               ; preds = %19
  %24 = load i8, ptr %3, align 1
  %25 = sext i8 %24 to i32
  %26 = sub nsw i32 %25, 97
  store i32 %26, ptr %2, align 4
  br label %40

27:                                               ; preds = %19, %15
  %28 = load i8, ptr %3, align 1
  %29 = sext i8 %28 to i32
  %30 = icmp sge i32 %29, 65
  br i1 %30, label %31, label %39

31:                                               ; preds = %27
  %32 = load i8, ptr %3, align 1
  %33 = sext i8 %32 to i32
  %34 = icmp sle i32 %33, 70
  br i1 %34, label %35, label %39

35:                                               ; preds = %31
  %36 = load i8, ptr %3, align 1
  %37 = sext i8 %36 to i32
  %38 = sub nsw i32 %37, 65
  store i32 %38, ptr %2, align 4
  br label %40

39:                                               ; preds = %31, %27
  store i32 -1, ptr %2, align 4
  br label %40

40:                                               ; preds = %39, %35, %23, %11
  %41 = load i32, ptr %2, align 4
  ret i32 %41
}

; Function Attrs: nounwind uwtable
define internal i64 @mtree_atol(ptr noundef %0, i32 noundef %1) #0 {
  %3 = alloca i64, align 8
  %4 = alloca ptr, align 8
  %5 = alloca i32, align 4
  %6 = alloca i64, align 8
  %7 = alloca i64, align 8
  %8 = alloca i32, align 4
  %9 = alloca i32, align 4
  store ptr %0, ptr %4, align 8
  store i32 %1, ptr %5, align 4
  %10 = load i32, ptr %5, align 4
  %11 = icmp eq i32 %10, 0
  br i1 %11, label %12, label %40

12:                                               ; preds = %2
  %13 = load ptr, ptr %4, align 8
  %14 = load ptr, ptr %13, align 8
  %15 = load i8, ptr %14, align 1
  %16 = sext i8 %15 to i32
  %17 = icmp ne i32 %16, 48
  br i1 %17, label %18, label %19

18:                                               ; preds = %12
  store i32 10, ptr %5, align 4
  br label %39

19:                                               ; preds = %12
  %20 = load ptr, ptr %4, align 8
  %21 = load ptr, ptr %20, align 8
  %22 = getelementptr inbounds i8, ptr %21, i64 1
  %23 = load i8, ptr %22, align 1
  %24 = sext i8 %23 to i32
  %25 = icmp eq i32 %24, 120
  br i1 %25, label %33, label %26

26:                                               ; preds = %19
  %27 = load ptr, ptr %4, align 8
  %28 = load ptr, ptr %27, align 8
  %29 = getelementptr inbounds i8, ptr %28, i64 1
  %30 = load i8, ptr %29, align 1
  %31 = sext i8 %30 to i32
  %32 = icmp eq i32 %31, 88
  br i1 %32, label %33, label %37

33:                                               ; preds = %26, %19
  %34 = load ptr, ptr %4, align 8
  %35 = load ptr, ptr %34, align 8
  %36 = getelementptr inbounds i8, ptr %35, i64 2
  store ptr %36, ptr %34, align 8
  store i32 16, ptr %5, align 4
  br label %38

37:                                               ; preds = %26
  store i32 8, ptr %5, align 4
  br label %38

38:                                               ; preds = %37, %33
  br label %39

39:                                               ; preds = %38, %18
  br label %40

40:                                               ; preds = %39, %2
  %41 = load ptr, ptr %4, align 8
  %42 = load ptr, ptr %41, align 8
  %43 = load i8, ptr %42, align 1
  %44 = sext i8 %43 to i32
  %45 = icmp eq i32 %44, 45
  br i1 %45, label %46, label %99

46:                                               ; preds = %40
  %47 = load i32, ptr %5, align 4
  %48 = sext i32 %47 to i64
  %49 = sdiv i64 -9223372036854775808, %48
  store i64 %49, ptr %7, align 8
  %50 = load i32, ptr %5, align 4
  %51 = sext i32 %50 to i64
  %52 = srem i64 -9223372036854775808, %51
  %53 = sub nsw i64 0, %52
  %54 = trunc i64 %53 to i32
  store i32 %54, ptr %9, align 4
  %55 = load ptr, ptr %4, align 8
  %56 = load ptr, ptr %55, align 8
  %57 = getelementptr inbounds i8, ptr %56, i32 1
  store ptr %57, ptr %55, align 8
  store i64 0, ptr %6, align 8
  %58 = load ptr, ptr %4, align 8
  %59 = load ptr, ptr %58, align 8
  %60 = load i8, ptr %59, align 1
  %61 = call i32 @parsedigit(i8 noundef signext %60)
  store i32 %61, ptr %8, align 4
  br label %62

62:                                               ; preds = %84, %46
  %63 = load i32, ptr %8, align 4
  %64 = icmp sge i32 %63, 0
  br i1 %64, label %65, label %69

65:                                               ; preds = %62
  %66 = load i32, ptr %8, align 4
  %67 = load i32, ptr %5, align 4
  %68 = icmp slt i32 %66, %67
  br label %69

69:                                               ; preds = %65, %62
  %70 = phi i1 [ false, %62 ], [ %68, %65 ]
  br i1 %70, label %71, label %97

71:                                               ; preds = %69
  %72 = load i64, ptr %6, align 8
  %73 = load i64, ptr %7, align 8
  %74 = icmp slt i64 %72, %73
  br i1 %74, label %83, label %75

75:                                               ; preds = %71
  %76 = load i64, ptr %6, align 8
  %77 = load i64, ptr %7, align 8
  %78 = icmp eq i64 %76, %77
  br i1 %78, label %79, label %84

79:                                               ; preds = %75
  %80 = load i32, ptr %8, align 4
  %81 = load i32, ptr %9, align 4
  %82 = icmp sge i32 %80, %81
  br i1 %82, label %83, label %84

83:                                               ; preds = %79, %71
  store i64 -9223372036854775808, ptr %3, align 8
  br label %148

84:                                               ; preds = %79, %75
  %85 = load i64, ptr %6, align 8
  %86 = load i32, ptr %5, align 4
  %87 = sext i32 %86 to i64
  %88 = mul nsw i64 %85, %87
  %89 = load i32, ptr %8, align 4
  %90 = sext i32 %89 to i64
  %91 = sub nsw i64 %88, %90
  store i64 %91, ptr %6, align 8
  %92 = load ptr, ptr %4, align 8
  %93 = load ptr, ptr %92, align 8
  %94 = getelementptr inbounds i8, ptr %93, i32 1
  store ptr %94, ptr %92, align 8
  %95 = load i8, ptr %94, align 1
  %96 = call i32 @parsedigit(i8 noundef signext %95)
  store i32 %96, ptr %8, align 4
  br label %62, !llvm.loop !31

97:                                               ; preds = %69
  %98 = load i64, ptr %6, align 8
  store i64 %98, ptr %3, align 8
  br label %148

99:                                               ; preds = %40
  %100 = load i32, ptr %5, align 4
  %101 = sext i32 %100 to i64
  %102 = sdiv i64 9223372036854775807, %101
  store i64 %102, ptr %7, align 8
  %103 = load i32, ptr %5, align 4
  %104 = sext i32 %103 to i64
  %105 = srem i64 9223372036854775807, %104
  %106 = trunc i64 %105 to i32
  store i32 %106, ptr %9, align 4
  store i64 0, ptr %6, align 8
  %107 = load ptr, ptr %4, align 8
  %108 = load ptr, ptr %107, align 8
  %109 = load i8, ptr %108, align 1
  %110 = call i32 @parsedigit(i8 noundef signext %109)
  store i32 %110, ptr %8, align 4
  br label %111

111:                                              ; preds = %133, %99
  %112 = load i32, ptr %8, align 4
  %113 = icmp sge i32 %112, 0
  br i1 %113, label %114, label %118

114:                                              ; preds = %111
  %115 = load i32, ptr %8, align 4
  %116 = load i32, ptr %5, align 4
  %117 = icmp slt i32 %115, %116
  br label %118

118:                                              ; preds = %114, %111
  %119 = phi i1 [ false, %111 ], [ %117, %114 ]
  br i1 %119, label %120, label %146

120:                                              ; preds = %118
  %121 = load i64, ptr %6, align 8
  %122 = load i64, ptr %7, align 8
  %123 = icmp sgt i64 %121, %122
  br i1 %123, label %132, label %124

124:                                              ; preds = %120
  %125 = load i64, ptr %6, align 8
  %126 = load i64, ptr %7, align 8
  %127 = icmp eq i64 %125, %126
  br i1 %127, label %128, label %133

128:                                              ; preds = %124
  %129 = load i32, ptr %8, align 4
  %130 = load i32, ptr %9, align 4
  %131 = icmp sgt i32 %129, %130
  br i1 %131, label %132, label %133

132:                                              ; preds = %128, %120
  store i64 9223372036854775807, ptr %3, align 8
  br label %148

133:                                              ; preds = %128, %124
  %134 = load i64, ptr %6, align 8
  %135 = load i32, ptr %5, align 4
  %136 = sext i32 %135 to i64
  %137 = mul nsw i64 %134, %136
  %138 = load i32, ptr %8, align 4
  %139 = sext i32 %138 to i64
  %140 = add nsw i64 %137, %139
  store i64 %140, ptr %6, align 8
  %141 = load ptr, ptr %4, align 8
  %142 = load ptr, ptr %141, align 8
  %143 = getelementptr inbounds i8, ptr %142, i32 1
  store ptr %143, ptr %141, align 8
  %144 = load i8, ptr %143, align 1
  %145 = call i32 @parsedigit(i8 noundef signext %144)
  store i32 %145, ptr %8, align 4
  br label %111, !llvm.loop !32

146:                                              ; preds = %118
  %147 = load i64, ptr %6, align 8
  store i64 %147, ptr %3, align 8
  br label %148

148:                                              ; preds = %146, %132, %97, %83
  %149 = load i64, ptr %3, align 8
  ret i64 %149
}