; Function Attrs: nofree norecurse nosync nounwind memory(read, argmem: readwrite, inaccessiblemem: none) uwtable
define internal fastcc i64 @mtree_atol(ptr noundef nonnull captures(none) %0, i32 noundef range(i32 0, 11) %1) unnamed_addr #14 {
  %3 = icmp eq i32 %1, 0
  %.pre = load ptr, ptr %0, align 8
  br i1 %3, label %4, label %thread-pre-split

4:                                                ; preds = %2
  %5 = load i8, ptr %.pre, align 1
  %.not = icmp eq i8 %5, 48
  br i1 %.not, label %6, label %11

6:                                                ; preds = %4
  %7 = getelementptr inbounds nuw i8, ptr %.pre, i64 1
  %8 = load i8, ptr %7, align 1
  switch i8 %8, label %.thread91 [
    i8 120, label %9
    i8 88, label %9
  ]

9:                                                ; preds = %6, %6
  %10 = getelementptr inbounds nuw i8, ptr %.pre, i64 2
  store ptr %10, ptr %0, align 8
  br label %thread-pre-split

thread-pre-split:                                 ; preds = %2, %9
  %.ph = phi ptr [ %.pre, %2 ], [ %10, %9 ]
  %.043.ph = phi i32 [ %1, %2 ], [ 16, %9 ]
  %.pr = load i8, ptr %.ph, align 1
  br label %11

11:                                               ; preds = %thread-pre-split, %4
  %12 = phi i8 [ %.pr, %thread-pre-split ], [ %5, %4 ]
  %13 = phi ptr [ %.ph, %thread-pre-split ], [ %.pre, %4 ]
  %.043 = phi i32 [ %.043.ph, %thread-pre-split ], [ 10, %4 ]
  %14 = icmp eq i8 %12, 45
  %15 = zext nneg i32 %.043 to i64
  br i1 %14, label %16, label %56

16:                                               ; preds = %11
  %17 = udiv i64 -9223372036854775808, %15
  %.neg = sub i64 0, %17
  %18 = urem i64 -9223372036854775808, %15
  %19 = trunc nuw nsw i64 %18 to i32
  %20 = getelementptr inbounds nuw i8, ptr %13, i64 1
  store ptr %20, ptr %0, align 8
  %21 = load i8, ptr %20, align 1
  %22 = sext i8 %21 to i32
  %23 = add i8 %21, -48
  %or.cond.i = icmp ult i8 %23, 10
  br i1 %or.cond.i, label %24, label %26

24:                                               ; preds = %16
  %25 = add nsw i32 %22, -48
  br label %parsedigit.exit

26:                                               ; preds = %16
  %27 = add i8 %21, -97
  %or.cond5.i = icmp ult i8 %27, 6
  br i1 %or.cond5.i, label %28, label %30

28:                                               ; preds = %26
  %29 = add nsw i32 %22, -97
  br label %parsedigit.exit

30:                                               ; preds = %26
  %31 = add i8 %21, -65
  %or.cond8.i = icmp ult i8 %31, 6
  %32 = add nsw i32 %22, -65
  %spec.select.i = select i1 %or.cond8.i, i32 %32, i32 -1
  br label %parsedigit.exit

parsedigit.exit:                                  ; preds = %24, %28, %30
  %.0.i = phi i32 [ %25, %24 ], [ %29, %28 ], [ %spec.select.i, %30 ]
  %33 = icmp ult i32 %.0.i, %.043
  br i1 %33, label %.lr.ph81, label %.loopexit

.lr.ph81:                                         ; preds = %parsedigit.exit, %parsedigit.exit56
  %34 = phi ptr [ %42, %parsedigit.exit56 ], [ %20, %parsedigit.exit ]
  %.080 = phi i32 [ %.0.i55, %parsedigit.exit56 ], [ %.0.i, %parsedigit.exit ]
  %.04179 = phi i64 [ %41, %parsedigit.exit56 ], [ 0, %parsedigit.exit ]
  %35 = icmp slt i64 %.04179, %.neg
  br i1 %35, label %.loopexit, label %36

36:                                               ; preds = %.lr.ph81
  %37 = icmp ne i64 %.04179, %.neg
  %.not49 = icmp slt i32 %.080, %19
  %or.cond = or i1 %37, %.not49
  br i1 %or.cond, label %38, label %.loopexit

38:                                               ; preds = %36
  %39 = mul nsw i64 %.04179, %15
  %40 = sext i32 %.080 to i64
  %41 = sub nsw i64 %39, %40
  %42 = getelementptr inbounds nuw i8, ptr %34, i64 1
  store ptr %42, ptr %0, align 8
  %43 = load i8, ptr %42, align 1
  %44 = sext i8 %43 to i32
  %45 = add i8 %43, -48
  %or.cond.i51 = icmp ult i8 %45, 10
  br i1 %or.cond.i51, label %46, label %48

46:                                               ; preds = %38
  %47 = add nsw i32 %44, -48
  br label %parsedigit.exit56

48:                                               ; preds = %38
  %49 = add i8 %43, -97
  %or.cond5.i52 = icmp ult i8 %49, 6
  br i1 %or.cond5.i52, label %50, label %52

50:                                               ; preds = %48
  %51 = add nsw i32 %44, -97
  br label %parsedigit.exit56

52:                                               ; preds = %48
  %53 = add i8 %43, -65
  %or.cond8.i53 = icmp ult i8 %53, 6
  %54 = add nsw i32 %44, -65
  %spec.select.i54 = select i1 %or.cond8.i53, i32 %54, i32 -1
  br label %parsedigit.exit56

parsedigit.exit56:                                ; preds = %46, %50, %52
  %.0.i55 = phi i32 [ %47, %46 ], [ %51, %50 ], [ %spec.select.i54, %52 ]
  %55 = icmp ult i32 %.0.i55, %.043
  br i1 %55, label %.lr.ph81, label %.loopexit, !llvm.loop !31

56:                                               ; preds = %11
  %57 = udiv i64 9223372036854775807, %15
  %58 = urem i64 9223372036854775807, %15
  %59 = trunc nuw nsw i64 %58 to i32
  %60 = sext i8 %12 to i32
  %61 = add i8 %12, -48
  %or.cond.i57 = icmp ult i8 %61, 10
  br i1 %or.cond.i57, label %.thread91, label %68

.thread91:                                        ; preds = %6, %56
  %62 = phi i32 [ %60, %56 ], [ 48, %6 ]
  %63 = phi i32 [ %59, %56 ], [ 7, %6 ]
  %64 = phi i64 [ %57, %56 ], [ 1152921504606846975, %6 ]
  %65 = phi i64 [ %15, %56 ], [ 8, %6 ]
  %66 = phi ptr [ %13, %56 ], [ %.pre, %6 ]
  %.0439095 = phi i32 [ %.043, %56 ], [ 8, %6 ]
  %67 = add nsw i32 %62, -48
  br label %parsedigit.exit62

68:                                               ; preds = %56
  %69 = add i8 %12, -97
  %or.cond5.i58 = icmp ult i8 %69, 6
  br i1 %or.cond5.i58, label %70, label %72

70:                                               ; preds = %68
  %71 = add nsw i32 %60, -97
  br label %parsedigit.exit62

72:                                               ; preds = %68
  %73 = add i8 %12, -65
  %or.cond8.i59 = icmp ult i8 %73, 6
  %74 = add nsw i32 %60, -65
  %spec.select.i60 = select i1 %or.cond8.i59, i32 %74, i32 -1
  br label %parsedigit.exit62

parsedigit.exit62:                                ; preds = %.thread91, %70, %72
  %75 = phi i32 [ %63, %.thread91 ], [ %59, %70 ], [ %59, %72 ]
  %76 = phi i64 [ %64, %.thread91 ], [ %57, %70 ], [ %57, %72 ]
  %77 = phi i64 [ %65, %.thread91 ], [ %15, %70 ], [ %15, %72 ]
  %78 = phi ptr [ %66, %.thread91 ], [ %13, %70 ], [ %13, %72 ]
  %.0439094 = phi i32 [ %.0439095, %.thread91 ], [ %.043, %70 ], [ %.043, %72 ]
  %.0.i61 = phi i32 [ %67, %.thread91 ], [ %71, %70 ], [ %spec.select.i60, %72 ]
  %79 = icmp ult i32 %.0.i61, %.0439094
  br i1 %79, label %.lr.ph, label %.loopexit

.lr.ph:                                           ; preds = %parsedigit.exit62, %parsedigit.exit68
  %80 = phi ptr [ %89, %parsedigit.exit68 ], [ %78, %parsedigit.exit62 ]
  %.174 = phi i32 [ %.0.i67, %parsedigit.exit68 ], [ %.0.i61, %parsedigit.exit62 ]
  %.14273 = phi i64 [ %88, %parsedigit.exit68 ], [ 0, %parsedigit.exit62 ]
  %81 = icmp sgt i64 %.14273, %76
  br i1 %81, label %.loopexit, label %82

82:                                               ; preds = %.lr.ph
  %83 = icmp eq i64 %.14273, %76
  %84 = icmp sgt i32 %.174, %75
  %or.cond50 = select i1 %83, i1 %84, i1 false
  br i1 %or.cond50, label %.loopexit, label %85

85:                                               ; preds = %82
  %86 = mul nsw i64 %.14273, %77
  %87 = zext nneg i32 %.174 to i64
  %88 = add nsw i64 %86, %87
  %89 = getelementptr inbounds nuw i8, ptr %80, i64 1
  store ptr %89, ptr %0, align 8
  %90 = load i8, ptr %89, align 1
  %91 = sext i8 %90 to i32
  %92 = add i8 %90, -48
  %or.cond.i63 = icmp ult i8 %92, 10
  br i1 %or.cond.i63, label %93, label %95

93:                                               ; preds = %85
  %94 = add nsw i32 %91, -48
  br label %parsedigit.exit68

95:                                               ; preds = %85
  %96 = add i8 %90, -97
  %or.cond5.i64 = icmp ult i8 %96, 6
  br i1 %or.cond5.i64, label %97, label %99

97:                                               ; preds = %95
  %98 = add nsw i32 %91, -97
  br label %parsedigit.exit68

99:                                               ; preds = %95
  %100 = add i8 %90, -65
  %or.cond8.i65 = icmp ult i8 %100, 6
  %101 = add nsw i32 %91, -65
  %spec.select.i66 = select i1 %or.cond8.i65, i32 %101, i32 -1
  br label %parsedigit.exit68

parsedigit.exit68:                                ; preds = %93, %97, %99
  %.0.i67 = phi i32 [ %94, %93 ], [ %98, %97 ], [ %spec.select.i66, %99 ]
  %102 = icmp ult i32 %.0.i67, %.0439094
  br i1 %102, label %.lr.ph, label %.loopexit, !llvm.loop !32

.loopexit:                                        ; preds = %36, %.lr.ph81, %parsedigit.exit56, %82, %.lr.ph, %parsedigit.exit68, %parsedigit.exit62, %parsedigit.exit
  %.044 = phi i64 [ 0, %parsedigit.exit ], [ 0, %parsedigit.exit62 ], [ 9223372036854775807, %82 ], [ 9223372036854775807, %.lr.ph ], [ %88, %parsedigit.exit68 ], [ -9223372036854775808, %36 ], [ -9223372036854775808, %.lr.ph81 ], [ %41, %parsedigit.exit56 ]
  ret i64 %.044
}